target datalayout = "e-m:e-p270:32:32-p271:32:32-p272:64:64-i64:64-i128:128-f80:128-n8:16:32:64-S128"
target triple = "x86_64-pc-linux-gnu"

%struct.strbuf = type { i64, i64, ptr }

; Function Attrs: inlinehint nounwind uwtable
define internal i64 @strbuf_avail(ptr noundef %0) #3 {
  %2 = alloca ptr, align 8
  store ptr %0, ptr %2, align 8, !tbaa !22
  %3 = load ptr, ptr %2, align 8, !tbaa !22
  %4 = getelementptr inbounds nuw %struct.strbuf, ptr %3, i32 0, i32 0
  %5 = load i64, ptr %4, align 8, !tbaa !42
  %6 = icmp ne i64 %5, 0
  br i1 %6, label %7, label %16

7:                                                ; preds = %1
  %8 = load ptr, ptr %2, align 8, !tbaa !22
  %9 = getelementptr inbounds nuw %struct.strbuf, ptr %8, i32 0, i32 0
  %10 = load i64, ptr %9, align 8, !tbaa !42
  %11 = load ptr, ptr %2, align 8, !tbaa !22
  %12 = getelementptr inbounds nuw %struct.strbuf, ptr %11, i32 0, i32 1
  %13 = load i64, ptr %12, align 8, !tbaa !35
  %14 = sub i64 %10, %13
  %15 = sub i64 %14, 1
  br label %17

16:                                               ; preds = %1
  br label %17

17:                                               ; preds = %16, %7
  %18 = phi i64 [ %15, %7 ], [ 0, %16 ]
  ret i64 %18
}

; Function Attrs: inlinehint nounwind uwtable
define internal void @strbuf_addch(ptr noundef %0, i32 noundef %1) #3 {
  %3 = alloca ptr, align 8
  %4 = alloca i32, align 4
  store ptr %0, ptr %3, align 8, !tbaa !22
  store i32 %1, ptr %4, align 4, !tbaa !30
  %5 = load ptr, ptr %3, align 8, !tbaa !22
  %6 = call i64 @strbuf_avail(ptr noundef %5)
  %7 = icmp ne i64 %6, 0
  br i1 %7, label %10, label %8

8:                                                ; preds = %2
  %9 = load ptr, ptr %3, align 8, !tbaa !22
  call void @strbuf_grow(ptr noundef %9, i64 noundef 1)
  br label %10

10:                                               ; preds = %8, %2
  %11 = load i32, ptr %4, align 4, !tbaa !30
  %12 = trunc i32 %11 to i8
  %13 = load ptr, ptr %3, align 8, !tbaa !22
  %14 = getelementptr inbounds nuw %struct.strbuf, ptr %13, i32 0, i32 2
  %15 = load ptr, ptr %14, align 8, !tbaa !32
  %16 = load ptr, ptr %3, align 8, !tbaa !22
  %17 = getelementptr inbounds nuw %struct.strbuf, ptr %16, i32 0, i32 1
  %18 = load i64, ptr %17, align 8, !tbaa !35
  %19 = add i64 %18, 1
  store i64 %19, ptr %17, align 8, !tbaa !35
  %20 = getelementptr inbounds nuw i8, ptr %15, i64 %18
  store i8 %12, ptr %20, align 1, !tbaa !26
  %21 = load ptr, ptr %3, align 8, !tbaa !22
  %22 = getelementptr inbounds nuw %struct.strbuf, ptr %21, i32 0, i32 2
  %23 = load ptr, ptr %22, align 8, !tbaa !32
  %24 = load ptr, ptr %3, align 8, !tbaa !22
  %25 = getelementptr inbounds nuw %struct.strbuf, ptr %24, i32 0, i32 1
  %26 = load i64, ptr %25, align 8, !tbaa !35
  %27 = getelementptr inbounds nuw i8, ptr %23, i64 %26
  store i8 0, ptr %27, align 1, !tbaa !26
  ret void
}

; Function Attrs: nounwind uwtable
define dso_local void @quote_cmdline(ptr noundef %0, ptr noundef %1) #0 {
  %3 = alloca ptr, align 8
  %4 = alloca ptr, align 8
  %5 = alloca ptr, align 8
  %6 = alloca i32, align 4
  %7 = alloca ptr, align 8
  %8 = alloca i8, align 1
  store ptr %0, ptr %3, align 8, !tbaa !22
  store ptr %1, ptr %4, align 8, !tbaa !24
  call void @llvm.lifetime.start.p0(i64 8, ptr %5) #7
  %9 = load ptr, ptr %4, align 8, !tbaa !24
  store ptr %9, ptr %5, align 8, !tbaa !24
  br label %10

10:                                               ; preds = %51, %2
  %11 = load ptr, ptr %5, align 8, !tbaa !24
  %12 = load ptr, ptr %11, align 8, !tbaa !4
  %13 = icmp ne ptr %12, null
  br i1 %13, label %15, label %14

14:                                               ; preds = %10
  store i32 2, ptr %6, align 4
  call void @llvm.lifetime.end.p0(i64 8, ptr %5) #7
  br label %54

15:                                               ; preds = %10
  %16 = load ptr, ptr %5, align 8, !tbaa !24
  %17 = load ptr, ptr %4, align 8, !tbaa !24
  %18 = icmp ne ptr %16, %17
  br i1 %18, label %19, label %21

19:                                               ; preds = %15
  %20 = load ptr, ptr %3, align 8, !tbaa !22
  call void @strbuf_addch(ptr noundef %20, i32 noundef 32)
  br label %21

21:                                               ; preds = %19, %15
  %22 = load ptr, ptr %3, align 8, !tbaa !22
  call void @strbuf_addch(ptr noundef %22, i32 noundef 34)
  call void @llvm.lifetime.start.p0(i64 8, ptr %7) #7
  %23 = load ptr, ptr %5, align 8, !tbaa !24
  %24 = load ptr, ptr %23, align 8, !tbaa !4
  store ptr %24, ptr %7, align 8, !tbaa !4
  br label %25

25:                                               ; preds = %46, %21
  %26 = load ptr, ptr %7, align 8, !tbaa !4
  %27 = load i8, ptr %26, align 1, !tbaa !26
  %28 = icmp ne i8 %27, 0
  br i1 %28, label %30, label %29

29:                                               ; preds = %25
  store i32 5, ptr %6, align 4
  call void @llvm.lifetime.end.p0(i64 8, ptr %7) #7
  br label %49

30:                                               ; preds = %25
  call void @llvm.lifetime.start.p0(i64 1, ptr %8) #7
  %31 = load ptr, ptr %7, align 8, !tbaa !4
  %32 = load i8, ptr %31, align 1, !tbaa !26
  store i8 %32, ptr %8, align 1, !tbaa !26
  %33 = load i8, ptr %8, align 1, !tbaa !26
  %34 = sext i8 %33 to i32
  %35 = icmp eq i32 %34, 34
  br i1 %35, label %40, label %36

36:                                               ; preds = %30
  %37 = load i8, ptr %8, align 1, !tbaa !26
  %38 = sext i8 %37 to i32
  %39 = icmp eq i32 %38, 92
  br i1 %39, label %40, label %42

40:                                               ; preds = %36, %30
  %41 = load ptr, ptr %3, align 8, !tbaa !22
  call void @strbuf_addch(ptr noundef %41, i32 noundef 92)
  br label %42

42:                                               ; preds = %40, %36
  %43 = load ptr, ptr %3, align 8, !tbaa !22
  %44 = load i8, ptr %8, align 1, !tbaa !26
  %45 = sext i8 %44 to i32
  call void @strbuf_addch(ptr noundef %43, i32 noundef %45)
  call void @llvm.lifetime.end.p0(i64 1, ptr %8) #7
  br label %46

46:                                               ; preds = %42
  %47 = load ptr, ptr %7, align 8, !tbaa !4
  %48 = getelementptr inbounds nuw i8, ptr %47, i32 1
  store ptr %48, ptr %7, align 8, !tbaa !4
  br label %25, !llvm.loop !27

49:                                               ; preds = %29
  %50 = load ptr, ptr %3, align 8, !tbaa !22
  call void @strbuf_addch(ptr noundef %50, i32 noundef 34)
  br label %51

51:                                               ; preds = %49
  %52 = load ptr, ptr %5, align 8, !tbaa !24
  %53 = getelementptr inbounds nuw ptr, ptr %52, i32 1
  store ptr %53, ptr %5, align 8, !tbaa !24
  br label %10, !llvm.loop !29

54:                                               ; preds = %14
  ret void
}