; Function Attrs: nounwind uwtable
define dso_local void @quote_cmdline(ptr noundef %0, ptr noundef readonly %1) local_unnamed_addr #0 {
  %3 = load ptr, ptr %1, align 8, !tbaa !18
  %.not62 = icmp eq ptr %3, null
  br i1 %.not62, label %._crit_edge, label %.lr.ph

.lr.ph:                                           ; preds = %2
  %4 = getelementptr inbounds nuw i8, ptr %0, i64 8
  %5 = getelementptr inbounds nuw i8, ptr %0, i64 16
  br label %6

._crit_edge:                                      ; preds = %strbuf_addch.exit41, %2
  ret void

6:                                                ; preds = %.lr.ph, %strbuf_addch.exit41
  %.063 = phi ptr [ %1, %.lr.ph ], [ %37, %strbuf_addch.exit41 ]
  %.not20 = icmp eq ptr %.063, %1
  br i1 %.not20, label %16, label %7

7:                                                ; preds = %6
  %8 = load i64, ptr %0, align 8, !tbaa !19
  %.not.i.i = icmp eq i64 %8, 0
  br i1 %.not.i.i, label %strbuf_avail.exit.thread.i, label %strbuf_avail.exit.i

strbuf_avail.exit.i:                              ; preds = %7
  %9 = load i64, ptr %4, align 8, !tbaa !22
  %.neg.i = add i64 %9, 1
  %.not.i = icmp eq i64 %8, %.neg.i
  br i1 %.not.i, label %strbuf_avail.exit.thread.i, label %strbuf_addch.exit

strbuf_avail.exit.thread.i:                       ; preds = %strbuf_avail.exit.i, %7
  tail call void @strbuf_grow(ptr noundef nonnull %0, i64 noundef 1) #9
  %.pre.i = load i64, ptr %4, align 8, !tbaa !22
  %.pre7.i = add i64 %.pre.i, 1
  br label %strbuf_addch.exit

strbuf_addch.exit:                                ; preds = %strbuf_avail.exit.i, %strbuf_avail.exit.thread.i
  %.pre-phi.i = phi i64 [ %.pre7.i, %strbuf_avail.exit.thread.i ], [ %.neg.i, %strbuf_avail.exit.i ]
  %10 = phi i64 [ %.pre.i, %strbuf_avail.exit.thread.i ], [ %9, %strbuf_avail.exit.i ]
  %11 = load ptr, ptr %5, align 8, !tbaa !23
  store i64 %.pre-phi.i, ptr %4, align 8, !tbaa !22
  %12 = getelementptr inbounds nuw i8, ptr %11, i64 %10
  store i8 32, ptr %12, align 1, !tbaa !14
  %13 = load ptr, ptr %5, align 8, !tbaa !23
  %14 = load i64, ptr %4, align 8, !tbaa !22
  %15 = getelementptr inbounds nuw i8, ptr %13, i64 %14
  store i8 0, ptr %15, align 1, !tbaa !14
  br label %16

16:                                               ; preds = %strbuf_addch.exit, %6
  %17 = load i64, ptr %0, align 8, !tbaa !19
  %.not.i.i22 = icmp eq i64 %17, 0
  br i1 %.not.i.i22, label %strbuf_avail.exit.thread.i27, label %strbuf_avail.exit.i23

strbuf_avail.exit.i23:                            ; preds = %16
  %18 = load i64, ptr %4, align 8, !tbaa !22
  %.neg.i24 = add i64 %18, 1
  %.not.i25 = icmp eq i64 %17, %.neg.i24
  br i1 %.not.i25, label %strbuf_avail.exit.thread.i27, label %strbuf_addch.exit31

strbuf_avail.exit.thread.i27:                     ; preds = %strbuf_avail.exit.i23, %16
  tail call void @strbuf_grow(ptr noundef nonnull %0, i64 noundef 1) #9
  %.pre.i29 = load i64, ptr %4, align 8, !tbaa !22
  %.pre7.i30 = add i64 %.pre.i29, 1
  br label %strbuf_addch.exit31

strbuf_addch.exit31:                              ; preds = %strbuf_avail.exit.i23, %strbuf_avail.exit.thread.i27
  %.pre-phi.i26 = phi i64 [ %.pre7.i30, %strbuf_avail.exit.thread.i27 ], [ %.neg.i24, %strbuf_avail.exit.i23 ]
  %19 = phi i64 [ %.pre.i29, %strbuf_avail.exit.thread.i27 ], [ %18, %strbuf_avail.exit.i23 ]
  %20 = load ptr, ptr %5, align 8, !tbaa !23
  store i64 %.pre-phi.i26, ptr %4, align 8, !tbaa !22
  %21 = getelementptr inbounds nuw i8, ptr %20, i64 %19
  store i8 34, ptr %21, align 1, !tbaa !14
  %22 = load ptr, ptr %5, align 8, !tbaa !23
  %23 = load i64, ptr %4, align 8, !tbaa !22
  %24 = getelementptr inbounds nuw i8, ptr %22, i64 %23
  store i8 0, ptr %24, align 1, !tbaa !14
  %25 = load ptr, ptr %.063, align 8, !tbaa !18
  br label %26

26:                                               ; preds = %strbuf_addch.exit61, %strbuf_addch.exit31
  %.018 = phi ptr [ %25, %strbuf_addch.exit31 ], [ %57, %strbuf_addch.exit61 ]
  %27 = load i8, ptr %.018, align 1, !tbaa !14
  switch i8 %27, label %48 [
    i8 0, label %28
    i8 92, label %39
    i8 34, label %39
  ]

28:                                               ; preds = %26
  %29 = load i64, ptr %0, align 8, !tbaa !19
  %.not.i.i32 = icmp eq i64 %29, 0
  br i1 %.not.i.i32, label %strbuf_avail.exit.thread.i37, label %strbuf_avail.exit.i33

strbuf_avail.exit.i33:                            ; preds = %28
  %30 = load i64, ptr %4, align 8, !tbaa !22
  %.neg.i34 = add i64 %30, 1
  %.not.i35 = icmp eq i64 %29, %.neg.i34
  br i1 %.not.i35, label %strbuf_avail.exit.thread.i37, label %strbuf_addch.exit41

strbuf_avail.exit.thread.i37:                     ; preds = %strbuf_avail.exit.i33, %28
  tail call void @strbuf_grow(ptr noundef nonnull %0, i64 noundef 1) #9
  %.pre.i39 = load i64, ptr %4, align 8, !tbaa !22
  %.pre7.i40 = add i64 %.pre.i39, 1
  br label %strbuf_addch.exit41

strbuf_addch.exit41:                              ; preds = %strbuf_avail.exit.i33, %strbuf_avail.exit.thread.i37
  %.pre-phi.i36 = phi i64 [ %.pre7.i40, %strbuf_avail.exit.thread.i37 ], [ %.neg.i34, %strbuf_avail.exit.i33 ]
  %31 = phi i64 [ %.pre.i39, %strbuf_avail.exit.thread.i37 ], [ %30, %strbuf_avail.exit.i33 ]
  %32 = load ptr, ptr %5, align 8, !tbaa !23
  store i64 %.pre-phi.i36, ptr %4, align 8, !tbaa !22
  %33 = getelementptr inbounds nuw i8, ptr %32, i64 %31
  store i8 34, ptr %33, align 1, !tbaa !14
  %34 = load ptr, ptr %5, align 8, !tbaa !23
  %35 = load i64, ptr %4, align 8, !tbaa !22
  %36 = getelementptr inbounds nuw i8, ptr %34, i64 %35
  store i8 0, ptr %36, align 1, !tbaa !14
  %37 = getelementptr inbounds nuw i8, ptr %.063, i64 8
  %38 = load ptr, ptr %37, align 8, !tbaa !18
  %.not = icmp eq ptr %38, null
  br i1 %.not, label %._crit_edge, label %6, !llvm.loop !24

39:                                               ; preds = %26, %26
  %40 = load i64, ptr %0, align 8, !tbaa !19
  %.not.i.i42 = icmp eq i64 %40, 0
  br i1 %.not.i.i42, label %strbuf_avail.exit.thread.i47, label %strbuf_avail.exit.i43

strbuf_avail.exit.i43:                            ; preds = %39
  %41 = load i64, ptr %4, align 8, !tbaa !22
  %.neg.i44 = add i64 %41, 1
  %.not.i45 = icmp eq i64 %40, %.neg.i44
  br i1 %.not.i45, label %strbuf_avail.exit.thread.i47, label %strbuf_addch.exit51

strbuf_avail.exit.thread.i47:                     ; preds = %strbuf_avail.exit.i43, %39
  tail call void @strbuf_grow(ptr noundef nonnull %0, i64 noundef 1) #9
  %.pre.i49 = load i64, ptr %4, align 8, !tbaa !22
  %.pre7.i50 = add i64 %.pre.i49, 1
  br label %strbuf_addch.exit51

strbuf_addch.exit51:                              ; preds = %strbuf_avail.exit.i43, %strbuf_avail.exit.thread.i47
  %.pre-phi.i46 = phi i64 [ %.pre7.i50, %strbuf_avail.exit.thread.i47 ], [ %.neg.i44, %strbuf_avail.exit.i43 ]
  %42 = phi i64 [ %.pre.i49, %strbuf_avail.exit.thread.i47 ], [ %41, %strbuf_avail.exit.i43 ]
  %43 = load ptr, ptr %5, align 8, !tbaa !23
  store i64 %.pre-phi.i46, ptr %4, align 8, !tbaa !22
  %44 = getelementptr inbounds nuw i8, ptr %43, i64 %42
  store i8 92, ptr %44, align 1, !tbaa !14
  %45 = load ptr, ptr %5, align 8, !tbaa !23
  %46 = load i64, ptr %4, align 8, !tbaa !22
  %47 = getelementptr inbounds nuw i8, ptr %45, i64 %46
  store i8 0, ptr %47, align 1, !tbaa !14
  br label %48

48:                                               ; preds = %26, %strbuf_addch.exit51
  %49 = load i64, ptr %0, align 8, !tbaa !19
  %.not.i.i52 = icmp eq i64 %49, 0
  br i1 %.not.i.i52, label %strbuf_avail.exit.thread.i57, label %strbuf_avail.exit.i53

strbuf_avail.exit.i53:                            ; preds = %48
  %50 = load i64, ptr %4, align 8, !tbaa !22
  %.neg.i54 = add i64 %50, 1
  %.not.i55 = icmp eq i64 %49, %.neg.i54
  br i1 %.not.i55, label %strbuf_avail.exit.thread.i57, label %strbuf_addch.exit61

strbuf_avail.exit.thread.i57:                     ; preds = %strbuf_avail.exit.i53, %48
  tail call void @strbuf_grow(ptr noundef nonnull %0, i64 noundef 1) #9
  %.pre.i59 = load i64, ptr %4, align 8, !tbaa !22
  %.pre7.i60 = add i64 %.pre.i59, 1
  br label %strbuf_addch.exit61

strbuf_addch.exit61:                              ; preds = %strbuf_avail.exit.i53, %strbuf_avail.exit.thread.i57
  %.pre-phi.i56 = phi i64 [ %.pre7.i60, %strbuf_avail.exit.thread.i57 ], [ %.neg.i54, %strbuf_avail.exit.i53 ]
  %51 = phi i64 [ %.pre.i59, %strbuf_avail.exit.thread.i57 ], [ %50, %strbuf_avail.exit.i53 ]
  %52 = load ptr, ptr %5, align 8, !tbaa !23
  store i64 %.pre-phi.i56, ptr %4, align 8, !tbaa !22
  %53 = getelementptr inbounds nuw i8, ptr %52, i64 %51
  store i8 %27, ptr %53, align 1, !tbaa !14
  %54 = load ptr, ptr %5, align 8, !tbaa !23
  %55 = load i64, ptr %4, align 8, !tbaa !22
  %56 = getelementptr inbounds nuw i8, ptr %54, i64 %55
  store i8 0, ptr %56, align 1, !tbaa !14
  %57 = getelementptr inbounds nuw i8, ptr %.018, i64 1
  br label %26, !llvm.loop !25
}